; Function Attrs: mustprogress nounwind uwtable
define hidden noundef ptr @_ZN11ClassLoader18get_canonical_pathEPKcP6Thread(ptr nocapture noundef readonly %0, ptr noundef %1) local_unnamed_addr #0 align 2 {
  %3 = tail call noundef ptr @_Z23resource_allocate_bytesP6ThreadmN17AllocFailStrategy13AllocFailEnumE(ptr noundef %1, i64 noundef 4097, i32 noundef 0) #20
  %4 = getelementptr inbounds i8, ptr %1, i64 800
  %5 = load ptr, ptr %4, align 8
  %6 = getelementptr inbounds i8, ptr %5, i64 24
  %7 = load ptr, ptr %6, align 8
  %8 = getelementptr inbounds i8, ptr %5, i64 32
  %9 = load ptr, ptr %8, align 8
  %10 = getelementptr inbounds i8, ptr %5, i64 40
  %11 = load ptr, ptr %10, align 8
  %12 = getelementptr inbounds i8, ptr %5, i64 8
  %13 = load i64, ptr %12, align 8
  %14 = tail call i64 @strlen(ptr noundef nonnull dereferenceable(1) %0) #21
  %15 = add i64 %14, 1
  %16 = tail call noundef ptr @_Z23resource_allocate_bytesP6ThreadmN17AllocFailStrategy13AllocFailEnumE(ptr noundef %1, i64 noundef %15, i32 noundef 0) #20
  %17 = tail call ptr @strcpy(ptr noundef nonnull dereferenceable(1) %16, ptr noundef nonnull dereferenceable(1) %0) #20
  %18 = load ptr, ptr @_ZL17CanonicalizeEntry, align 8
  %19 = tail call noundef ptr @_ZN2os11native_pathEPc(ptr noundef %16) #20
  %20 = tail call noundef i32 %18(ptr noundef %19, ptr noundef %3, i32 noundef 4097) #20
  %21 = load ptr, ptr %7, align 8
  %.not.i.i.i.i = icmp eq ptr %21, null
  br i1 %.not.i.i.i.i, label %23, label %22

22:                                               ; preds = %2
  tail call void @_ZN5Arena17set_size_in_bytesEm(ptr noundef nonnull align 8 dereferenceable(48) %5, i64 noundef %13) #20
  tail call void @_ZN5Chunk9next_chopEPS_(ptr noundef nonnull %7) #20
  br label %23

23:                                               ; preds = %22, %2
  %24 = load ptr, ptr %8, align 8
  %.not8.i.i.i.i = icmp eq ptr %24, %9
  br i1 %.not8.i.i.i.i, label %_ZN12ResourceMarkD2Ev.exit, label %25

25:                                               ; preds = %23
  store ptr %7, ptr %6, align 8
  store ptr %9, ptr %8, align 8
  store ptr %11, ptr %10, align 8
  br label %_ZN12ResourceMarkD2Ev.exit

_ZN12ResourceMarkD2Ev.exit:                       ; preds = %23, %25
  %26 = icmp slt i32 %20, 0
  %. = select i1 %26, ptr null, ptr %3
  ret ptr %.
}